target datalayout = "e-m:e-p270:32:32-p271:32:32-p272:64:64-i64:64-i128:128-f80:128-n8:16:32:64-S128"
target triple = "x86_64-pc-linux-gnu"

%struct.parser_state_t = type { ptr, double, ptr }
%struct.token_t = type { i32, %union.token_data_t }
%union.token_data_t = type { double }

; Function Attrs: nounwind uwtable
define internal double @_parse_additive_expression(ptr noundef %0) #0 {
  %2 = alloca double, align 8
  %3 = alloca ptr, align 8
  %4 = alloca double, align 8
  %5 = alloca i32, align 4
  %6 = alloca i32, align 4
  %7 = alloca double, align 8
  store ptr %0, ptr %3, align 8, !tbaa !14
  %8 = load ptr, ptr %3, align 8, !tbaa !14
  %9 = getelementptr inbounds nuw %struct.parser_state_t, ptr %8, i32 0, i32 2
  %10 = load ptr, ptr %9, align 8, !tbaa !20
  %11 = icmp ne ptr %10, null
  br i1 %11, label %13, label %12

12:                                               ; preds = %1
  store double 0x7FF8000000000000, ptr %2, align 8
  br label %74

13:                                               ; preds = %1
  call void @llvm.lifetime.start.p0(i64 8, ptr %4) #6
  %14 = load ptr, ptr %3, align 8, !tbaa !14
  %15 = call reassoc nsz arcp contract afn double @_parse_multiplicative_expression(ptr noundef %14)
  store double %15, ptr %4, align 8, !tbaa !6
  br label %16

16:                                               ; preds = %70, %13
  %17 = load ptr, ptr %3, align 8, !tbaa !14
  %18 = getelementptr inbounds nuw %struct.parser_state_t, ptr %17, i32 0, i32 2
  %19 = load ptr, ptr %18, align 8, !tbaa !20
  %20 = icmp ne ptr %19, null
  br i1 %20, label %21, label %28

21:                                               ; preds = %16
  %22 = load ptr, ptr %3, align 8, !tbaa !14
  %23 = getelementptr inbounds nuw %struct.parser_state_t, ptr %22, i32 0, i32 2
  %24 = load ptr, ptr %23, align 8, !tbaa !20
  %25 = getelementptr inbounds nuw %struct.token_t, ptr %24, i32 0, i32 0
  %26 = load i32, ptr %25, align 8, !tbaa !21
  %27 = icmp eq i32 %26, 1
  br label %28

28:                                               ; preds = %21, %16
  %29 = phi i1 [ false, %16 ], [ %27, %21 ]
  br i1 %29, label %30, label %71

30:                                               ; preds = %28
  call void @llvm.lifetime.start.p0(i64 4, ptr %5) #6
  %31 = load ptr, ptr %3, align 8, !tbaa !14
  %32 = getelementptr inbounds nuw %struct.parser_state_t, ptr %31, i32 0, i32 2
  %33 = load ptr, ptr %32, align 8, !tbaa !20
  %34 = getelementptr inbounds nuw %struct.token_t, ptr %33, i32 0, i32 1
  %35 = load i32, ptr %34, align 8, !tbaa !13
  store i32 %35, ptr %5, align 4, !tbaa !25
  %36 = load i32, ptr %5, align 4, !tbaa !25
  %37 = icmp ne i32 %36, 0
  br i1 %37, label %38, label %43

38:                                               ; preds = %30
  %39 = load i32, ptr %5, align 4, !tbaa !25
  %40 = icmp ne i32 %39, 2
  br i1 %40, label %41, label %43

41:                                               ; preds = %38
  %42 = load double, ptr %4, align 8, !tbaa !6
  store double %42, ptr %2, align 8
  store i32 1, ptr %6, align 4
  br label %68

43:                                               ; preds = %38, %30
  %44 = load ptr, ptr %3, align 8, !tbaa !14
  %45 = getelementptr inbounds nuw %struct.parser_state_t, ptr %44, i32 0, i32 2
  %46 = load ptr, ptr %45, align 8, !tbaa !20
  call void @free(ptr noundef %46) #6
  %47 = load ptr, ptr %3, align 8, !tbaa !14
  %48 = call ptr @_get_token(ptr noundef %47)
  %49 = load ptr, ptr %3, align 8, !tbaa !14
  %50 = getelementptr inbounds nuw %struct.parser_state_t, ptr %49, i32 0, i32 2
  store ptr %48, ptr %50, align 8, !tbaa !20
  call void @llvm.lifetime.start.p0(i64 8, ptr %7) #6
  %51 = load ptr, ptr %3, align 8, !tbaa !14
  %52 = call reassoc nsz arcp contract afn double @_parse_multiplicative_expression(ptr noundef %51)
  store double %52, ptr %7, align 8, !tbaa !6
  %53 = load i32, ptr %5, align 4, !tbaa !25
  %54 = icmp eq i32 %53, 0
  br i1 %54, label %55, label %59

55:                                               ; preds = %43
  %56 = load double, ptr %7, align 8, !tbaa !6
  %57 = load double, ptr %4, align 8, !tbaa !6
  %58 = fadd reassoc nsz arcp contract afn double %57, %56
  store double %58, ptr %4, align 8, !tbaa !6
  br label %67

59:                                               ; preds = %43
  %60 = load i32, ptr %5, align 4, !tbaa !25
  %61 = icmp eq i32 %60, 2
  br i1 %61, label %62, label %66

62:                                               ; preds = %59
  %63 = load double, ptr %7, align 8, !tbaa !6
  %64 = load double, ptr %4, align 8, !tbaa !6
  %65 = fsub reassoc nsz arcp contract afn double %64, %63
  store double %65, ptr %4, align 8, !tbaa !6
  br label %66

66:                                               ; preds = %62, %59
  br label %67

67:                                               ; preds = %66, %55
  call void @llvm.lifetime.end.p0(i64 8, ptr %7) #6
  store i32 0, ptr %6, align 4
  br label %68

68:                                               ; preds = %67, %41
  call void @llvm.lifetime.end.p0(i64 4, ptr %5) #6
  %69 = load i32, ptr %6, align 4
  switch i32 %69, label %73 [
    i32 0, label %70
  ]

70:                                               ; preds = %68
  br label %16

71:                                               ; preds = %28
  %72 = load double, ptr %4, align 8, !tbaa !6
  store double %72, ptr %2, align 8
  store i32 1, ptr %6, align 4
  br label %73

73:                                               ; preds = %71, %68
  call void @llvm.lifetime.end.p0(i64 8, ptr %4) #6
  br label %74

74:                                               ; preds = %73, %12
  %75 = load double, ptr %2, align 8
  ret double %75
}

; Function Attrs: nounwind uwtable
define internal double @_parse_expression(ptr noundef %0) #0 {
  %2 = alloca ptr, align 8
  store ptr %0, ptr %2, align 8, !tbaa !14
  %3 = load ptr, ptr %2, align 8, !tbaa !14
  %4 = call reassoc nsz arcp contract afn double @_parse_additive_expression(ptr noundef %3)
  ret double %4
}

; Function Attrs: nounwind uwtable
define internal double @_parse_primary_expression(ptr noundef %0) #0 {
  %2 = alloca double, align 8
  %3 = alloca ptr, align 8
  %4 = alloca double, align 8
  %5 = alloca double, align 8
  %6 = alloca i32, align 4
  store ptr %0, ptr %3, align 8, !tbaa !14
  %7 = load ptr, ptr %3, align 8, !tbaa !14
  %8 = getelementptr inbounds nuw %struct.parser_state_t, ptr %7, i32 0, i32 2
  %9 = load ptr, ptr %8, align 8, !tbaa !20
  %10 = icmp ne ptr %9, null
  br i1 %10, label %12, label %11

11:                                               ; preds = %1
  store double 0x7FF8000000000000, ptr %2, align 8
  br label %87

12:                                               ; preds = %1
  %13 = load ptr, ptr %3, align 8, !tbaa !14
  %14 = getelementptr inbounds nuw %struct.parser_state_t, ptr %13, i32 0, i32 2
  %15 = load ptr, ptr %14, align 8, !tbaa !20
  %16 = getelementptr inbounds nuw %struct.token_t, ptr %15, i32 0, i32 0
  %17 = load i32, ptr %16, align 8, !tbaa !21
  %18 = icmp eq i32 %17, 0
  br i1 %18, label %19, label %33

19:                                               ; preds = %12
  call void @llvm.lifetime.start.p0(i64 8, ptr %4) #6
  %20 = load ptr, ptr %3, align 8, !tbaa !14
  %21 = getelementptr inbounds nuw %struct.parser_state_t, ptr %20, i32 0, i32 2
  %22 = load ptr, ptr %21, align 8, !tbaa !20
  %23 = getelementptr inbounds nuw %struct.token_t, ptr %22, i32 0, i32 1
  %24 = load double, ptr %23, align 8, !tbaa !13
  store double %24, ptr %4, align 8, !tbaa !6
  %25 = load ptr, ptr %3, align 8, !tbaa !14
  %26 = getelementptr inbounds nuw %struct.parser_state_t, ptr %25, i32 0, i32 2
  %27 = load ptr, ptr %26, align 8, !tbaa !20
  call void @free(ptr noundef %27) #6
  %28 = load ptr, ptr %3, align 8, !tbaa !14
  %29 = call ptr @_get_token(ptr noundef %28)
  %30 = load ptr, ptr %3, align 8, !tbaa !14
  %31 = getelementptr inbounds nuw %struct.parser_state_t, ptr %30, i32 0, i32 2
  store ptr %29, ptr %31, align 8, !tbaa !20
  %32 = load double, ptr %4, align 8, !tbaa !6
  store double %32, ptr %2, align 8
  call void @llvm.lifetime.end.p0(i64 8, ptr %4) #6
  br label %87

33:                                               ; preds = %12
  %34 = load ptr, ptr %3, align 8, !tbaa !14
  %35 = getelementptr inbounds nuw %struct.parser_state_t, ptr %34, i32 0, i32 2
  %36 = load ptr, ptr %35, align 8, !tbaa !20
  %37 = getelementptr inbounds nuw %struct.token_t, ptr %36, i32 0, i32 0
  %38 = load i32, ptr %37, align 8, !tbaa !21
  %39 = icmp eq i32 %38, 1
  br i1 %39, label %40, label %86

40:                                               ; preds = %33
  %41 = load ptr, ptr %3, align 8, !tbaa !14
  %42 = getelementptr inbounds nuw %struct.parser_state_t, ptr %41, i32 0, i32 2
  %43 = load ptr, ptr %42, align 8, !tbaa !20
  %44 = getelementptr inbounds nuw %struct.token_t, ptr %43, i32 0, i32 1
  %45 = load i32, ptr %44, align 8, !tbaa !13
  %46 = icmp eq i32 %45, 9
  br i1 %46, label %47, label %86

47:                                               ; preds = %40
  %48 = load ptr, ptr %3, align 8, !tbaa !14
  %49 = getelementptr inbounds nuw %struct.parser_state_t, ptr %48, i32 0, i32 2
  %50 = load ptr, ptr %49, align 8, !tbaa !20
  call void @free(ptr noundef %50) #6
  %51 = load ptr, ptr %3, align 8, !tbaa !14
  %52 = call ptr @_get_token(ptr noundef %51)
  %53 = load ptr, ptr %3, align 8, !tbaa !14
  %54 = getelementptr inbounds nuw %struct.parser_state_t, ptr %53, i32 0, i32 2
  store ptr %52, ptr %54, align 8, !tbaa !20
  call void @llvm.lifetime.start.p0(i64 8, ptr %5) #6
  %55 = load ptr, ptr %3, align 8, !tbaa !14
  %56 = call reassoc nsz arcp contract afn double @_parse_expression(ptr noundef %55)
  store double %56, ptr %5, align 8, !tbaa !6
  %57 = load ptr, ptr %3, align 8, !tbaa !14
  %58 = getelementptr inbounds nuw %struct.parser_state_t, ptr %57, i32 0, i32 2
  %59 = load ptr, ptr %58, align 8, !tbaa !20
  %60 = icmp ne ptr %59, null
  br i1 %60, label %61, label %75

61:                                               ; preds = %47
  %62 = load ptr, ptr %3, align 8, !tbaa !14
  %63 = getelementptr inbounds nuw %struct.parser_state_t, ptr %62, i32 0, i32 2
  %64 = load ptr, ptr %63, align 8, !tbaa !20
  %65 = getelementptr inbounds nuw %struct.token_t, ptr %64, i32 0, i32 0
  %66 = load i32, ptr %65, align 8, !tbaa !21
  %67 = icmp ne i32 %66, 1
  br i1 %67, label %75, label %68

68:                                               ; preds = %61
  %69 = load ptr, ptr %3, align 8, !tbaa !14
  %70 = getelementptr inbounds nuw %struct.parser_state_t, ptr %69, i32 0, i32 2
  %71 = load ptr, ptr %70, align 8, !tbaa !20
  %72 = getelementptr inbounds nuw %struct.token_t, ptr %71, i32 0, i32 1
  %73 = load i32, ptr %72, align 8, !tbaa !13
  %74 = icmp ne i32 %73, 10
  br i1 %74, label %75, label %76

75:                                               ; preds = %68, %61, %47
  store double 0x7FF8000000000000, ptr %2, align 8
  store i32 1, ptr %6, align 4
  br label %85

76:                                               ; preds = %68
  %77 = load ptr, ptr %3, align 8, !tbaa !14
  %78 = getelementptr inbounds nuw %struct.parser_state_t, ptr %77, i32 0, i32 2
  %79 = load ptr, ptr %78, align 8, !tbaa !20
  call void @free(ptr noundef %79) #6
  %80 = load ptr, ptr %3, align 8, !tbaa !14
  %81 = call ptr @_get_token(ptr noundef %80)
  %82 = load ptr, ptr %3, align 8, !tbaa !14
  %83 = getelementptr inbounds nuw %struct.parser_state_t, ptr %82, i32 0, i32 2
  store ptr %81, ptr %83, align 8, !tbaa !20
  %84 = load double, ptr %5, align 8, !tbaa !6
  store double %84, ptr %2, align 8
  store i32 1, ptr %6, align 4
  br label %85

85:                                               ; preds = %76, %75
  call void @llvm.lifetime.end.p0(i64 8, ptr %5) #6
  br label %87

86:                                               ; preds = %40, %33
  store double 0x7FF8000000000000, ptr %2, align 8
  br label %87

87:                                               ; preds = %86, %85, %19, %11
  %88 = load double, ptr %2, align 8
  ret double %88
}

; Function Attrs: nounwind uwtable
define internal double @_parse_unary_expression(ptr noundef %0) #0 {
  %2 = alloca double, align 8
  %3 = alloca ptr, align 8
  store ptr %0, ptr %3, align 8, !tbaa !14
  %4 = load ptr, ptr %3, align 8, !tbaa !14
  %5 = getelementptr inbounds nuw %struct.parser_state_t, ptr %4, i32 0, i32 2
  %6 = load ptr, ptr %5, align 8, !tbaa !20
  %7 = icmp ne ptr %6, null
  br i1 %7, label %9, label %8

8:                                                ; preds = %1
  store double 0x7FF8000000000000, ptr %2, align 8
  br label %55

9:                                                ; preds = %1
  %10 = load ptr, ptr %3, align 8, !tbaa !14
  %11 = getelementptr inbounds nuw %struct.parser_state_t, ptr %10, i32 0, i32 2
  %12 = load ptr, ptr %11, align 8, !tbaa !20
  %13 = getelementptr inbounds nuw %struct.token_t, ptr %12, i32 0, i32 0
  %14 = load i32, ptr %13, align 8, !tbaa !21
  %15 = icmp eq i32 %14, 1
  br i1 %15, label %16, label %52

16:                                               ; preds = %9
  %17 = load ptr, ptr %3, align 8, !tbaa !14
  %18 = getelementptr inbounds nuw %struct.parser_state_t, ptr %17, i32 0, i32 2
  %19 = load ptr, ptr %18, align 8, !tbaa !20
  %20 = getelementptr inbounds nuw %struct.token_t, ptr %19, i32 0, i32 1
  %21 = load i32, ptr %20, align 8, !tbaa !13
  %22 = icmp eq i32 %21, 2
  br i1 %22, label %23, label %34

23:                                               ; preds = %16
  %24 = load ptr, ptr %3, align 8, !tbaa !14
  %25 = getelementptr inbounds nuw %struct.parser_state_t, ptr %24, i32 0, i32 2
  %26 = load ptr, ptr %25, align 8, !tbaa !20
  call void @free(ptr noundef %26) #6
  %27 = load ptr, ptr %3, align 8, !tbaa !14
  %28 = call ptr @_get_token(ptr noundef %27)
  %29 = load ptr, ptr %3, align 8, !tbaa !14
  %30 = getelementptr inbounds nuw %struct.parser_state_t, ptr %29, i32 0, i32 2
  store ptr %28, ptr %30, align 8, !tbaa !20
  %31 = load ptr, ptr %3, align 8, !tbaa !14
  %32 = call reassoc nsz arcp contract afn double @_parse_unary_expression(ptr noundef %31)
  %33 = fmul reassoc nsz arcp contract afn double -1.000000e+00, %32
  store double %33, ptr %2, align 8
  br label %55

34:                                               ; preds = %16
  %35 = load ptr, ptr %3, align 8, !tbaa !14
  %36 = getelementptr inbounds nuw %struct.parser_state_t, ptr %35, i32 0, i32 2
  %37 = load ptr, ptr %36, align 8, !tbaa !20
  %38 = getelementptr inbounds nuw %struct.token_t, ptr %37, i32 0, i32 1
  %39 = load i32, ptr %38, align 8, !tbaa !13
  %40 = icmp eq i32 %39, 0
  br i1 %40, label %41, label %51

41:                                               ; preds = %34
  %42 = load ptr, ptr %3, align 8, !tbaa !14
  %43 = getelementptr inbounds nuw %struct.parser_state_t, ptr %42, i32 0, i32 2
  %44 = load ptr, ptr %43, align 8, !tbaa !20
  call void @free(ptr noundef %44) #6
  %45 = load ptr, ptr %3, align 8, !tbaa !14
  %46 = call ptr @_get_token(ptr noundef %45)
  %47 = load ptr, ptr %3, align 8, !tbaa !14
  %48 = getelementptr inbounds nuw %struct.parser_state_t, ptr %47, i32 0, i32 2
  store ptr %46, ptr %48, align 8, !tbaa !20
  %49 = load ptr, ptr %3, align 8, !tbaa !14
  %50 = call reassoc nsz arcp contract afn double @_parse_unary_expression(ptr noundef %49)
  store double %50, ptr %2, align 8
  br label %55

51:                                               ; preds = %34
  br label %52

52:                                               ; preds = %51, %9
  %53 = load ptr, ptr %3, align 8, !tbaa !14
  %54 = call reassoc nsz arcp contract afn double @_parse_primary_expression(ptr noundef %53)
  store double %54, ptr %2, align 8
  br label %55

55:                                               ; preds = %52, %41, %23, %8
  %56 = load double, ptr %2, align 8
  ret double %56
}