; Function Attrs: nounwind uwtable
define internal fastcc double @_parse_unary_expression(ptr noundef %0) unnamed_addr #0 {
  %2 = getelementptr inbounds nuw i8, ptr %0, i64 16
  %3 = load ptr, ptr %2, align 8, !tbaa !16
  %.not38 = icmp eq ptr %3, null
  br i1 %.not38, label %common.ret79, label %.lr.ph

.lr.ph:                                           ; preds = %1, %tailrecurse
  %4 = phi ptr [ %13, %tailrecurse ], [ %3, %1 ]
  %5 = load i32, ptr %4, align 8, !tbaa !17
  switch i32 %5, label %common.ret79 [
    i32 1, label %6
    i32 0, label %14
  ]

6:                                                ; preds = %.lr.ph
  %7 = getelementptr inbounds nuw i8, ptr %4, i64 8
  %8 = load i32, ptr %7, align 8, !tbaa !6
  switch i32 %8, label %common.ret79 [
    i32 2, label %9
    i32 0, label %tailrecurse
    i32 9, label %18
  ]

common.ret79:                                     ; preds = %18, %38, %_parse_expression.exit, %14, %20, %1, %.lr.ph41, %36, %tailrecurse, %.lr.ph, %6, %9
  %common.ret79.op = phi double [ %12, %9 ], [ %16, %14 ], [ %.022.i.i40, %38 ], [ 0x7FF8000000000000, %_parse_expression.exit ], [ 0x7FF8000000000000, %18 ], [ 0x7FF8000000000000, %20 ], [ 0x7FF8000000000000, %1 ], [ 0x7FF8000000000000, %.lr.ph41 ], [ 0x7FF8000000000000, %36 ], [ 0x7FF8000000000000, %tailrecurse ], [ 0x7FF8000000000000, %.lr.ph ], [ 0x7FF8000000000000, %6 ]
  ret double %common.ret79.op

9:                                                ; preds = %6
  tail call void @free(ptr noundef nonnull %4) #5
  %10 = tail call fastcc ptr @_get_token(ptr noundef nonnull %0)
  store ptr %10, ptr %2, align 8, !tbaa !16
  %11 = tail call reassoc nsz arcp contract afn fastcc double @_parse_unary_expression(ptr noundef nonnull %0)
  %12 = fneg reassoc nsz arcp contract afn double %11
  br label %common.ret79

tailrecurse:                                      ; preds = %6
  tail call void @free(ptr noundef nonnull %4) #5
  %13 = tail call fastcc ptr @_get_token(ptr noundef nonnull %0)
  store ptr %13, ptr %2, align 8, !tbaa !16
  %.not = icmp eq ptr %13, null
  br i1 %.not, label %common.ret79, label %.lr.ph

14:                                               ; preds = %.lr.ph
  %15 = getelementptr inbounds nuw i8, ptr %4, i64 8
  %16 = load double, ptr %15, align 8, !tbaa !6
  tail call void @free(ptr noundef nonnull %4) #5
  %17 = tail call fastcc ptr @_get_token(ptr noundef nonnull %0)
  store ptr %17, ptr %2, align 8, !tbaa !16
  br label %common.ret79

18:                                               ; preds = %6
  tail call void @free(ptr noundef nonnull %4) #5
  %19 = tail call fastcc ptr @_get_token(ptr noundef nonnull %0)
  store ptr %19, ptr %2, align 8, !tbaa !16
  %.not.i.i = icmp eq ptr %19, null
  br i1 %.not.i.i, label %common.ret79, label %20

20:                                               ; preds = %18
  %21 = tail call reassoc nsz arcp contract afn fastcc double @_parse_multiplicative_expression(ptr noundef nonnull %0)
  %22 = load ptr, ptr %2, align 8, !tbaa !16
  %.not27.i.i39 = icmp eq ptr %22, null
  br i1 %.not27.i.i39, label %common.ret79, label %.lr.ph41

.lr.ph41:                                         ; preds = %20, %36
  %.pr = phi ptr [ %37, %36 ], [ %22, %20 ]
  %.022.i.i40 = phi double [ %.123.i.i, %36 ], [ %21, %20 ]
  %23 = load i32, ptr %.pr, align 8, !tbaa !17
  %24 = icmp eq i32 %23, 1
  br i1 %24, label %25, label %common.ret79

25:                                               ; preds = %.lr.ph41
  %26 = getelementptr inbounds nuw i8, ptr %.pr, i64 8
  %27 = load i32, ptr %26, align 8, !tbaa !6
  %28 = and i32 %27, -3
  %or.cond.not.i.i = icmp eq i32 %28, 0
  br i1 %or.cond.not.i.i, label %29, label %_parse_expression.exit

29:                                               ; preds = %25
  tail call void @free(ptr noundef nonnull %.pr) #5
  %30 = tail call fastcc ptr @_get_token(ptr noundef nonnull %0)
  store ptr %30, ptr %2, align 8, !tbaa !16
  %31 = tail call reassoc nsz arcp contract afn fastcc double @_parse_multiplicative_expression(ptr noundef nonnull %0)
  switch i32 %27, label %36 [
    i32 0, label %32
    i32 2, label %34
  ]

32:                                               ; preds = %29
  %33 = fadd reassoc nsz arcp contract afn double %31, %.022.i.i40
  br label %36

34:                                               ; preds = %29
  %35 = fsub reassoc nsz arcp contract afn double %.022.i.i40, %31
  br label %36

36:                                               ; preds = %34, %32, %29
  %.123.i.i = phi nsz double [ %33, %32 ], [ %35, %34 ], [ %.022.i.i40, %29 ]
  %37 = load ptr, ptr %2, align 8, !tbaa !16
  %.not27.i.i = icmp eq ptr %37, null
  br i1 %.not27.i.i, label %common.ret79, label %.lr.ph41

_parse_expression.exit:                           ; preds = %25
  %.not26.i = icmp eq i32 %27, 10
  br i1 %.not26.i, label %38, label %common.ret79

38:                                               ; preds = %_parse_expression.exit
  tail call void @free(ptr noundef nonnull %.pr) #5
  %39 = tail call fastcc ptr @_get_token(ptr noundef nonnull %0)
  store ptr %39, ptr %2, align 8, !tbaa !16
  br label %common.ret79
}